; Function Attrs: mustprogress uwtable
define void @_ZN9grpc_core8channelz11ChannelNode18RemoveChildChannelEl(ptr noundef nonnull align 8 dereferenceable(304) %0, i64 noundef %1) local_unnamed_addr #3 align 2 personality ptr @__gxx_personality_v0 {
  %3 = alloca i64, align 8
  store i64 %1, ptr %3, align 8, !tbaa !35
  %4 = getelementptr inbounds nuw i8, ptr %0, i64 200
  tail call void @_ZN4absl12lts_202407225Mutex4LockEv(ptr noundef nonnull align 8 dereferenceable(8) %4)
  %5 = getelementptr inbounds nuw i8, ptr %0, i64 208
  %6 = invoke noundef i64 @_ZNSt8_Rb_treeIllSt9_IdentityIlESt4lessIlESaIlEE5eraseERKl(ptr noundef nonnull align 8 dereferenceable(48) %5, ptr noundef nonnull align 8 dereferenceable(8) %3)
          to label %_ZNSt3setIlSt4lessIlESaIlEE5eraseERKl.exit unwind label %10

_ZNSt3setIlSt4lessIlESaIlEE5eraseERKl.exit:       ; preds = %2
  invoke void @_ZN4absl12lts_202407225Mutex6UnlockEv(ptr noundef nonnull align 8 dereferenceable(8) %4)
          to label %_ZN4absl12lts_202407229MutexLockD2Ev.exit unwind label %7

7:                                                ; preds = %_ZNSt3setIlSt4lessIlESaIlEE5eraseERKl.exit
  %8 = landingpad { ptr, i32 }
          catch ptr null
  %9 = extractvalue { ptr, i32 } %8, 0
  call void @__clang_call_terminate(ptr %9) #31
  unreachable

_ZN4absl12lts_202407229MutexLockD2Ev.exit:        ; preds = %_ZNSt3setIlSt4lessIlESaIlEE5eraseERKl.exit
  ret void

10:                                               ; preds = %2
  %11 = landingpad { ptr, i32 }
          cleanup
  invoke void @_ZN4absl12lts_202407225Mutex6UnlockEv(ptr noundef nonnull align 8 dereferenceable(8) %4)
          to label %_ZN4absl12lts_202407229MutexLockD2Ev.exit2 unwind label %12

12:                                               ; preds = %10
  %13 = landingpad { ptr, i32 }
          catch ptr null
  %14 = extractvalue { ptr, i32 } %13, 0
  call void @__clang_call_terminate(ptr %14) #31
  unreachable

_ZN4absl12lts_202407229MutexLockD2Ev.exit2:       ; preds = %10
  resume { ptr, i32 } %11
}